(dp1
S'autobahn_endpoints'
p2
ccopy_reg
_reconstructor
p3
(ctwisted.plugin
CachedDropin
p4
c__builtin__
object
p5
NtRp6
(dp7
S'moduleName'
p8
S'twisted.plugins.autobahn_endpoints'
p9
sS'description'
p10
NsS'plugins'
p11
(lp12
g3
(ctwisted.plugin
CachedPlugin
p13
g5
NtRp14
(dp15
S'provided'
p16
(lp17
ctwisted.internet.interfaces
IStreamServerEndpointStringParser
p18
actwisted.plugin
IPlugin
p19
asS'dropin'
p20
g6
sS'name'
p21
S'autobahnServerParser'
p22
sg10
Nsbag3
(g13
g5
NtRp23
(dp24
g16
(lp25
ctwisted.internet.interfaces
IStreamClientEndpointStringParser
p26
ag19
asg20
g6
sg21
S'autobahnClientParser'
p27
sg10
Nsbasbs.